target datalayout = "e-m:e-p270:32:32-p271:32:32-p272:64:64-i64:64-i128:128-f80:128-n8:16:32:64-S128"
target triple = "x86_64-pc-linux-gnu"

%struct.UserData_ = type { double, i32, double, double, double, i32, i32, i32, i32 }

; Function Attrs: nounwind uwtable
define internal i32 @Jac(double noundef %0, ptr noundef %1, ptr noundef %2, ptr noundef %3, ptr noundef %4, ptr noundef %5, ptr noundef %6, ptr noundef %7) #0 {
  %9 = alloca double, align 8
  %10 = alloca ptr, align 8
  %11 = alloca ptr, align 8
  %12 = alloca ptr, align 8
  %13 = alloca ptr, align 8
  %14 = alloca ptr, align 8
  %15 = alloca ptr, align 8
  %16 = alloca ptr, align 8
  %17 = alloca ptr, align 8
  %18 = alloca ptr, align 8
  store double %0, ptr %9, align 8, !tbaa !11
  store ptr %1, ptr %10, align 8, !tbaa !18
  store ptr %2, ptr %11, align 8, !tbaa !18
  store ptr %3, ptr %12, align 8, !tbaa !22
  store ptr %4, ptr %13, align 8, !tbaa !17
  store ptr %5, ptr %14, align 8, !tbaa !18
  store ptr %6, ptr %15, align 8, !tbaa !18
  store ptr %7, ptr %16, align 8, !tbaa !18
  call void @llvm.lifetime.start.p0(i64 8, ptr %17) #8
  %19 = load ptr, ptr %13, align 8, !tbaa !17
  store ptr %19, ptr %17, align 8, !tbaa !13
  call void @llvm.lifetime.start.p0(i64 8, ptr %18) #8
  %20 = load ptr, ptr %12, align 8, !tbaa !22
  %21 = call ptr @SUNDenseMatrix_Data(ptr noundef %20)
  store ptr %21, ptr %18, align 8, !tbaa !20
  %22 = load ptr, ptr %18, align 8, !tbaa !20
  %23 = getelementptr inbounds double, ptr %22, i64 0
  store double 0.000000e+00, ptr %23, align 8, !tbaa !11
  %24 = load ptr, ptr %17, align 8, !tbaa !13
  %25 = getelementptr inbounds nuw %struct.UserData_, ptr %24, i32 0, i32 0
  %26 = load double, ptr %25, align 8, !tbaa !43
  %27 = fneg double %26
  %28 = load ptr, ptr %18, align 8, !tbaa !20
  %29 = getelementptr inbounds double, ptr %28, i64 1
  store double %27, ptr %29, align 8, !tbaa !11
  %30 = load ptr, ptr %17, align 8, !tbaa !13
  %31 = getelementptr inbounds nuw %struct.UserData_, ptr %30, i32 0, i32 0
  %32 = load double, ptr %31, align 8, !tbaa !43
  %33 = load ptr, ptr %18, align 8, !tbaa !20
  %34 = getelementptr inbounds double, ptr %33, i64 2
  store double %32, ptr %34, align 8, !tbaa !11
  %35 = load ptr, ptr %18, align 8, !tbaa !20
  %36 = getelementptr inbounds double, ptr %35, i64 3
  store double 0.000000e+00, ptr %36, align 8, !tbaa !11
  call void @llvm.lifetime.end.p0(i64 8, ptr %18) #8
  call void @llvm.lifetime.end.p0(i64 8, ptr %17) #8
  ret i32 0
}