; Function Attrs: nounwind uwtable
define internal noundef i32 @Jac(double %0, ptr readnone captures(none) %1, ptr readnone captures(none) %2, ptr noundef %3, ptr noundef readonly captures(none) %4, ptr readnone captures(none) %5, ptr readnone captures(none) %6, ptr readnone captures(none) %7) #0 {
  %9 = tail call ptr @SUNDenseMatrix_Data(ptr noundef %3) #13
  store double 0.000000e+00, ptr %9, align 8, !tbaa !4
  %10 = load double, ptr %4, align 8, !tbaa !13
  %11 = fneg double %10
  %12 = getelementptr inbounds nuw i8, ptr %9, i64 8
  store double %11, ptr %12, align 8, !tbaa !4
  %13 = load double, ptr %4, align 8, !tbaa !13
  %14 = getelementptr inbounds nuw i8, ptr %9, i64 16
  store double %13, ptr %14, align 8, !tbaa !4
  %15 = getelementptr inbounds nuw i8, ptr %9, i64 24
  store double 0.000000e+00, ptr %15, align 8, !tbaa !4
  ret i32 0
}